; Function Attrs: nounwind uwtable
define noundef ptr @l___private_Std_Time_Date_Unit_Weekday_0__Std_Time_reprWeekday_match__1_splitter____x40_Std_Time_Date_Unit_Weekday___hyg_13____rarg___boxed(ptr noundef %0, ptr noundef %1, ptr noundef %2, ptr noundef %3, ptr noundef %4, ptr noundef %5, ptr noundef %6, ptr noundef %7) #1 {
  %9 = ptrtoint ptr %0 to i64
  %10 = lshr i64 %9, 1
  %11 = trunc i64 %10 to i8
  %12 = and i64 %9, 1
  %.not = icmp eq i64 %12, 0
  br i1 %.not, label %13, label %lean_dec.exit23

13:                                               ; preds = %8
  %14 = load i32, ptr %0, align 4, !tbaa !4
  %15 = icmp sgt i32 %14, 1
  br i1 %15, label %16, label %18, !prof !9

16:                                               ; preds = %13
  %17 = add nsw i32 %14, -1
  store i32 %17, ptr %0, align 4, !tbaa !4
  br label %lean_dec.exit23

18:                                               ; preds = %13
  %.not.i = icmp eq i32 %14, 0
  br i1 %.not.i, label %lean_dec.exit23, label %19

19:                                               ; preds = %18
  tail call void @lean_dec_ref_cold(ptr noundef nonnull %0) #7
  br label %lean_dec.exit23

lean_dec.exit23:                                  ; preds = %19, %18, %16, %8
  %20 = tail call ptr @l___private_Std_Time_Date_Unit_Weekday_0__Std_Time_reprWeekday_match__1_splitter____x40_Std_Time_Date_Unit_Weekday___hyg_13____rarg(i8 noundef zeroext %11, ptr noundef %1, ptr noundef %2, ptr noundef %3, ptr noundef %4, ptr noundef %5, ptr noundef %6, ptr noundef %7)
  %21 = ptrtoint ptr %7 to i64
  %22 = and i64 %21, 1
  %.not38 = icmp eq i64 %22, 0
  br i1 %.not38, label %23, label %lean_dec.exit22

23:                                               ; preds = %lean_dec.exit23
  %24 = load i32, ptr %7, align 4, !tbaa !4
  %25 = icmp sgt i32 %24, 1
  br i1 %25, label %26, label %28, !prof !9

26:                                               ; preds = %23
  %27 = add nsw i32 %24, -1
  store i32 %27, ptr %7, align 4, !tbaa !4
  br label %lean_dec.exit22

28:                                               ; preds = %23
  %.not.i24 = icmp eq i32 %24, 0
  br i1 %.not.i24, label %lean_dec.exit22, label %29

29:                                               ; preds = %28
  tail call void @lean_dec_ref_cold(ptr noundef nonnull %7) #7
  br label %lean_dec.exit22

lean_dec.exit22:                                  ; preds = %29, %28, %26, %lean_dec.exit23
  %30 = ptrtoint ptr %6 to i64
  %31 = and i64 %30, 1
  %.not39 = icmp eq i64 %31, 0
  br i1 %.not39, label %32, label %lean_dec.exit21

32:                                               ; preds = %lean_dec.exit22
  %33 = load i32, ptr %6, align 4, !tbaa !4
  %34 = icmp sgt i32 %33, 1
  br i1 %34, label %35, label %37, !prof !9

35:                                               ; preds = %32
  %36 = add nsw i32 %33, -1
  store i32 %36, ptr %6, align 4, !tbaa !4
  br label %lean_dec.exit21

37:                                               ; preds = %32
  %.not.i26 = icmp eq i32 %33, 0
  br i1 %.not.i26, label %lean_dec.exit21, label %38

38:                                               ; preds = %37
  tail call void @lean_dec_ref_cold(ptr noundef nonnull %6) #7
  br label %lean_dec.exit21

lean_dec.exit21:                                  ; preds = %38, %37, %35, %lean_dec.exit22
  %39 = ptrtoint ptr %5 to i64
  %40 = and i64 %39, 1
  %.not40 = icmp eq i64 %40, 0
  br i1 %.not40, label %41, label %lean_dec.exit20

41:                                               ; preds = %lean_dec.exit21
  %42 = load i32, ptr %5, align 4, !tbaa !4
  %43 = icmp sgt i32 %42, 1
  br i1 %43, label %44, label %46, !prof !9

44:                                               ; preds = %41
  %45 = add nsw i32 %42, -1
  store i32 %45, ptr %5, align 4, !tbaa !4
  br label %lean_dec.exit20

46:                                               ; preds = %41
  %.not.i28 = icmp eq i32 %42, 0
  br i1 %.not.i28, label %lean_dec.exit20, label %47

47:                                               ; preds = %46
  tail call void @lean_dec_ref_cold(ptr noundef nonnull %5) #7
  br label %lean_dec.exit20

lean_dec.exit20:                                  ; preds = %47, %46, %44, %lean_dec.exit21
  %48 = ptrtoint ptr %4 to i64
  %49 = and i64 %48, 1
  %.not41 = icmp eq i64 %49, 0
  br i1 %.not41, label %50, label %lean_dec.exit19

50:                                               ; preds = %lean_dec.exit20
  %51 = load i32, ptr %4, align 4, !tbaa !4
  %52 = icmp sgt i32 %51, 1
  br i1 %52, label %53, label %55, !prof !9

53:                                               ; preds = %50
  %54 = add nsw i32 %51, -1
  store i32 %54, ptr %4, align 4, !tbaa !4
  br label %lean_dec.exit19

55:                                               ; preds = %50
  %.not.i30 = icmp eq i32 %51, 0
  br i1 %.not.i30, label %lean_dec.exit19, label %56

56:                                               ; preds = %55
  tail call void @lean_dec_ref_cold(ptr noundef nonnull %4) #7
  br label %lean_dec.exit19

lean_dec.exit19:                                  ; preds = %56, %55, %53, %lean_dec.exit20
  %57 = ptrtoint ptr %3 to i64
  %58 = and i64 %57, 1
  %.not42 = icmp eq i64 %58, 0
  br i1 %.not42, label %59, label %lean_dec.exit18

59:                                               ; preds = %lean_dec.exit19
  %60 = load i32, ptr %3, align 4, !tbaa !4
  %61 = icmp sgt i32 %60, 1
  br i1 %61, label %62, label %64, !prof !9

62:                                               ; preds = %59
  %63 = add nsw i32 %60, -1
  store i32 %63, ptr %3, align 4, !tbaa !4
  br label %lean_dec.exit18

64:                                               ; preds = %59
  %.not.i32 = icmp eq i32 %60, 0
  br i1 %.not.i32, label %lean_dec.exit18, label %65

65:                                               ; preds = %64
  tail call void @lean_dec_ref_cold(ptr noundef nonnull %3) #7
  br label %lean_dec.exit18

lean_dec.exit18:                                  ; preds = %65, %64, %62, %lean_dec.exit19
  %66 = ptrtoint ptr %2 to i64
  %67 = and i64 %66, 1
  %.not43 = icmp eq i64 %67, 0
  br i1 %.not43, label %68, label %lean_dec.exit17

68:                                               ; preds = %lean_dec.exit18
  %69 = load i32, ptr %2, align 4, !tbaa !4
  %70 = icmp sgt i32 %69, 1
  br i1 %70, label %71, label %73, !prof !9

71:                                               ; preds = %68
  %72 = add nsw i32 %69, -1
  store i32 %72, ptr %2, align 4, !tbaa !4
  br label %lean_dec.exit17

73:                                               ; preds = %68
  %.not.i34 = icmp eq i32 %69, 0
  br i1 %.not.i34, label %lean_dec.exit17, label %74

74:                                               ; preds = %73
  tail call void @lean_dec_ref_cold(ptr noundef nonnull %2) #7
  br label %lean_dec.exit17

lean_dec.exit17:                                  ; preds = %74, %73, %71, %lean_dec.exit18
  %75 = ptrtoint ptr %1 to i64
  %76 = and i64 %75, 1
  %.not44 = icmp eq i64 %76, 0
  br i1 %.not44, label %77, label %lean_dec.exit

77:                                               ; preds = %lean_dec.exit17
  %78 = load i32, ptr %1, align 4, !tbaa !4
  %79 = icmp sgt i32 %78, 1
  br i1 %79, label %80, label %82, !prof !9

80:                                               ; preds = %77
  %81 = add nsw i32 %78, -1
  store i32 %81, ptr %1, align 4, !tbaa !4
  br label %lean_dec.exit

82:                                               ; preds = %77
  %.not.i36 = icmp eq i32 %78, 0
  br i1 %.not.i36, label %lean_dec.exit, label %83

83:                                               ; preds = %82
  tail call void @lean_dec_ref_cold(ptr noundef nonnull %1) #7
  br label %lean_dec.exit

lean_dec.exit:                                    ; preds = %83, %82, %80, %lean_dec.exit17
  ret ptr %20
}